target datalayout = "e-m:e-p270:32:32-p271:32:32-p272:64:64-i64:64-i128:128-f80:128-n8:16:32:64-S128"
target triple = "x86_64-pc-linux-gnu"

%class.GrowableArrayBase = type { i32, i32 }
%class.FrameMap = type { i32, i32, i32, i32, i32, i32, ptr, ptr }
%class.GrowableArrayView.8 = type { %class.GrowableArrayBase, ptr }
%class.Location = type { i32 }

; Function Attrs: mustprogress nounwind uwtable
define linkonce_odr hidden void @_ZN8Location3setENS_5WhereENS_4TypeEj(ptr noundef nonnull align 4 dereferenceable(4) %0, i32 noundef %1, i32 noundef %2, i32 noundef %3) #1 comdat align 2 {
  %5 = alloca ptr, align 8
  %6 = alloca i32, align 4
  %7 = alloca i32, align 4
  %8 = alloca i32, align 4
  store ptr %0, ptr %5, align 8
  store i32 %1, ptr %6, align 4
  store i32 %2, ptr %7, align 4
  store i32 %3, ptr %8, align 4
  %9 = load ptr, ptr %5, align 8
  %10 = load i32, ptr %6, align 4
  %11 = shl i32 %10, 4
  %12 = load i32, ptr %7, align 4
  %13 = shl i32 %12, 0
  %14 = or i32 %11, %13
  %15 = load i32, ptr %8, align 4
  %16 = shl i32 %15, 5
  %17 = and i32 %16, -32
  %18 = or i32 %14, %17
  %19 = getelementptr inbounds %class.Location, ptr %9, i32 0, i32 0
  store i32 %18, ptr %19, align 4
  ret void
}

; Function Attrs: mustprogress nounwind uwtable
define linkonce_odr hidden noundef i32 @_Z10align_downIiiTnNSt9enable_ifIXcvbsr3std11is_integralIT_EE5valueEiE4typeELi0EES1_S1_T0_(i32 noundef %0, i32 noundef %1) #1 comdat {
  %3 = alloca i32, align 4
  %4 = alloca i32, align 4
  %5 = alloca i32, align 4
  store i32 %0, ptr %3, align 4
  store i32 %1, ptr %4, align 4
  %6 = load i32, ptr %3, align 4
  %7 = load i32, ptr %4, align 4
  %8 = call noundef i32 @_ZL14alignment_maskIiTnNSt9enable_ifIXcvbsr3std11is_integralIT_EE5valueEiE4typeELi0EES1_S1_(i32 noundef %7)
  %9 = xor i32 %8, -1
  %10 = and i32 %6, %9
  store i32 %10, ptr %5, align 4
  %11 = load i32, ptr %5, align 4
  ret i32 %11
}

; Function Attrs: mustprogress nounwind uwtable
define linkonce_odr hidden noundef i32 @_Z12checked_castIiiET_T0_(i32 noundef %0) #1 comdat {
  %2 = alloca i32, align 4
  %3 = alloca i32, align 4
  store i32 %0, ptr %2, align 4
  %4 = load i32, ptr %2, align 4
  store i32 %4, ptr %3, align 4
  %5 = load i32, ptr %3, align 4
  ret i32 %5
}

; Function Attrs: mustprogress nounwind uwtable
define internal noundef i32 @_ZL14alignment_maskIiTnNSt9enable_ifIXcvbsr3std11is_integralIT_EE5valueEiE4typeELi0EES1_S1_(i32 noundef %0) #1 {
  %2 = alloca i32, align 4
  store i32 %0, ptr %2, align 4
  %3 = load i32, ptr %2, align 4
  %4 = sub nsw i32 %3, 1
  ret i32 %4
}

; Function Attrs: mustprogress nounwind uwtable
define linkonce_odr hidden void @_ZN8LocationC2ENS_5WhereENS_4TypeEj(ptr noundef nonnull align 4 dereferenceable(4) %0, i32 noundef %1, i32 noundef %2, i32 noundef %3) unnamed_addr #1 comdat align 2 {
  %5 = alloca ptr, align 8
  %6 = alloca i32, align 4
  %7 = alloca i32, align 4
  %8 = alloca i32, align 4
  store ptr %0, ptr %5, align 8
  store i32 %1, ptr %6, align 4
  store i32 %2, ptr %7, align 4
  store i32 %3, ptr %8, align 4
  %9 = load ptr, ptr %5, align 8
  %10 = load i32, ptr %6, align 4
  %11 = load i32, ptr %7, align 4
  %12 = load i32, ptr %8, align 4
  call void @_ZN8Location3setENS_5WhereENS_4TypeEj(ptr noundef nonnull align 4 dereferenceable(4) %9, i32 noundef %10, i32 noundef %11, i32 noundef %12)
  ret void
}

; Function Attrs: mustprogress nounwind uwtable
define linkonce_odr hidden noundef i32 @_Z8align_upIiiTnNSt9enable_ifIXcvbsr3std11is_integralIT_EE5valueEiE4typeELi0EES1_S1_T0_(i32 noundef %0, i32 noundef %1) #1 comdat {
  %3 = alloca i32, align 4
  %4 = alloca i32, align 4
  %5 = alloca i32, align 4
  store i32 %0, ptr %3, align 4
  store i32 %1, ptr %4, align 4
  %6 = load i32, ptr %3, align 4
  %7 = load i32, ptr %4, align 4
  %8 = call noundef i32 @_ZL14alignment_maskIiTnNSt9enable_ifIXcvbsr3std11is_integralIT_EE5valueEiE4typeELi0EES1_S1_(i32 noundef %7)
  %9 = add nsw i32 %6, %8
  %10 = call noundef i32 @_Z12checked_castIiiET_T0_(i32 noundef %9)
  store i32 %10, ptr %5, align 4
  %11 = load i32, ptr %5, align 4
  %12 = load i32, ptr %4, align 4
  %13 = call noundef i32 @_Z10align_downIiiTnNSt9enable_ifIXcvbsr3std11is_integralIT_EE5valueEiE4typeELi0EES1_S1_T0_(i32 noundef %11, i32 noundef %12)
  ret i32 %13
}

; Function Attrs: mustprogress nounwind uwtable
define linkonce_odr hidden i32 @_ZN8Location11new_stk_locENS_4TypeEi(i32 noundef %0, i32 noundef %1) #1 comdat align 2 {
  %3 = alloca %class.Location, align 4
  %4 = alloca i32, align 4
  %5 = alloca i32, align 4
  store i32 %0, ptr %4, align 4
  store i32 %1, ptr %5, align 4
  %6 = load i32, ptr %4, align 4
  %7 = load i32, ptr %5, align 4
  %8 = ashr i32 %7, 2
  call void @_ZN8LocationC2ENS_5WhereENS_4TypeEj(ptr noundef nonnull align 4 dereferenceable(4) %3, i32 noundef 0, i32 noundef %6, i32 noundef %8)
  %9 = getelementptr inbounds %class.Location, ptr %3, i32 0, i32 0
  %10 = load i32, ptr %9, align 4
  ret i32 %10
}

; Function Attrs: mustprogress nounwind uwtable
define linkonce_odr hidden noundef i32 @_Z8in_bytes8ByteSize(i32 noundef %0) #1 comdat {
  %2 = alloca i32, align 4
  store i32 %0, ptr %2, align 4
  %3 = load i32, ptr %2, align 4
  ret i32 %3
}

; Function Attrs: mustprogress nounwind uwtable
define hidden noundef i32 @_ZNK8FrameMap19sp_offset_for_spillEi(ptr noundef nonnull align 8 dereferenceable(40) %0, i32 noundef %1) #1 align 2 {
  %3 = alloca ptr, align 8
  %4 = alloca i32, align 4
  %5 = alloca i32, align 4
  store ptr %0, ptr %3, align 8
  store i32 %1, ptr %4, align 4
  %6 = load ptr, ptr %3, align 8
  %7 = getelementptr inbounds %class.FrameMap, ptr %6, i32 0, i32 4
  %8 = load i32, ptr %7, align 8
  %9 = add nsw i32 0, %8
  %10 = call noundef i32 @_Z8align_upIiiTnNSt9enable_ifIXcvbsr3std11is_integralIT_EE5valueEiE4typeELi0EES1_S1_T0_(i32 noundef %9, i32 noundef 8)
  %11 = load i32, ptr %4, align 4
  %12 = mul nsw i32 %11, 4
  %13 = add nsw i32 %10, %12
  store i32 %13, ptr %5, align 4
  %14 = load i32, ptr %5, align 4
  %15 = call noundef i32 @_Z11in_ByteSizei(i32 noundef %14)
  ret i32 %15
}

; Function Attrs: mustprogress nounwind uwtable
define linkonce_odr hidden noundef nonnull align 4 dereferenceable(4) ptr @_ZN17GrowableArrayViewIiE2atEi(ptr noundef nonnull align 8 dereferenceable(16) %0, i32 noundef %1) #1 comdat align 2 {
  %3 = alloca ptr, align 8
  %4 = alloca i32, align 4
  store ptr %0, ptr %3, align 8
  store i32 %1, ptr %4, align 4
  %5 = load ptr, ptr %3, align 8
  %6 = getelementptr inbounds %class.GrowableArrayView.8, ptr %5, i32 0, i32 1
  %7 = load ptr, ptr %6, align 8
  %8 = load i32, ptr %4, align 4
  %9 = sext i32 %8 to i64
  %10 = getelementptr inbounds i32, ptr %7, i64 %9
  ret ptr %10
}

; Function Attrs: mustprogress nounwind uwtable
define linkonce_odr hidden noundef i32 @_ZNK8FrameMap8argcountEv(ptr noundef nonnull align 8 dereferenceable(40) %0) #1 comdat align 2 {
  %2 = alloca ptr, align 8
  store ptr %0, ptr %2, align 8
  %3 = load ptr, ptr %2, align 8
  %4 = getelementptr inbounds %class.FrameMap, ptr %3, i32 0, i32 1
  %5 = load i32, ptr %4, align 4
  ret i32 %5
}

; Function Attrs: mustprogress nounwind uwtable
define linkonce_odr hidden noundef i32 @_Zpl8ByteSizeS_(i32 noundef %0, i32 noundef %1) #1 comdat {
  %3 = alloca i32, align 4
  %4 = alloca i32, align 4
  store i32 %0, ptr %3, align 4
  store i32 %1, ptr %4, align 4
  %5 = load i32, ptr %3, align 4
  %6 = call noundef i32 @_Z8in_bytes8ByteSize(i32 noundef %5)
  %7 = load i32, ptr %4, align 4
  %8 = call noundef i32 @_Z8in_bytes8ByteSize(i32 noundef %7)
  %9 = add nsw i32 %6, %8
  %10 = call noundef i32 @_Z11in_ByteSizei(i32 noundef %9)
  ret i32 %10
}

; Function Attrs: mustprogress nounwind uwtable
define linkonce_odr hidden noundef i32 @_Z11in_ByteSizei(i32 noundef %0) #1 comdat {
  %2 = alloca i32, align 4
  store i32 %0, ptr %2, align 4
  %3 = load i32, ptr %2, align 4
  ret i32 %3
}

; Function Attrs: mustprogress nounwind uwtable
define hidden noundef zeroext i1 @_ZNK8FrameMap22location_for_sp_offsetE8ByteSizeN8Location4TypeEPS1_(ptr noundef nonnull align 8 dereferenceable(40) %0, i32 noundef %1, i32 noundef %2, ptr noundef %3) #1 align 2 {
  %5 = alloca i1, align 1
  %6 = alloca ptr, align 8
  %7 = alloca i32, align 4
  %8 = alloca i32, align 4
  %9 = alloca ptr, align 8
  %10 = alloca i32, align 4
  %11 = alloca %class.Location, align 4
  store ptr %0, ptr %6, align 8
  store i32 %1, ptr %7, align 4
  store i32 %2, ptr %8, align 4
  store ptr %3, ptr %9, align 8
  %12 = load i32, ptr %7, align 4
  %13 = call noundef i32 @_Z8in_bytes8ByteSize(i32 noundef %12)
  store i32 %13, ptr %10, align 4
  %14 = load i32, ptr %10, align 4
  %15 = call noundef zeroext i1 @_ZN8Location21legal_offset_in_bytesEi(i32 noundef %14)
  br i1 %15, label %17, label %16

16:                                               ; preds = %4
  store i1 false, ptr %5, align 1
  br label %23

17:                                               ; preds = %4
  %18 = load i32, ptr %8, align 4
  %19 = load i32, ptr %10, align 4
  %20 = call i32 @_ZN8Location11new_stk_locENS_4TypeEi(i32 noundef %18, i32 noundef %19)
  %21 = getelementptr inbounds %class.Location, ptr %11, i32 0, i32 0
  store i32 %20, ptr %21, align 4
  %22 = load ptr, ptr %9, align 8
  call void @llvm.memcpy.p0.p0.i64(ptr align 4 %22, ptr align 4 %11, i64 4, i1 false)
  store i1 true, ptr %5, align 1
  br label %23

23:                                               ; preds = %17, %16
  %24 = load i1, ptr %5, align 1
  ret i1 %24
}

; Function Attrs: mustprogress nounwind uwtable
define hidden noundef i32 @_ZNK8FrameMap18sp_offset_for_slotEi(ptr noundef nonnull align 8 dereferenceable(40) %0, i32 noundef %1) #1 align 2 {
  %3 = alloca i32, align 4
  %4 = alloca ptr, align 8
  %5 = alloca i32, align 4
  %6 = alloca i32, align 4
  %7 = alloca i32, align 4
  store ptr %0, ptr %4, align 8
  store i32 %1, ptr %5, align 4
  %8 = load ptr, ptr %4, align 8
  %9 = load i32, ptr %5, align 4
  %10 = call noundef i32 @_ZNK8FrameMap8argcountEv(ptr noundef nonnull align 8 dereferenceable(40) %8)
  %11 = icmp slt i32 %9, %10
  br i1 %11, label %12, label %20

12:                                               ; preds = %2
  %13 = getelementptr inbounds %class.FrameMap, ptr %8, i32 0, i32 7
  %14 = load ptr, ptr %13, align 8
  %15 = load i32, ptr %5, align 4
  %16 = call noundef nonnull align 4 dereferenceable(4) ptr @_ZN17GrowableArrayViewIiE2atEi(ptr noundef nonnull align 8 dereferenceable(16) %14, i32 noundef %15)
  %17 = load i32, ptr %16, align 4
  store i32 %17, ptr %6, align 4
  %18 = load i32, ptr %6, align 4
  %19 = call noundef i32 @_Z11in_ByteSizei(i32 noundef %18)
  store i32 %19, ptr %3, align 4
  br label %26

20:                                               ; preds = %2
  %21 = load i32, ptr %5, align 4
  %22 = call noundef i32 @_ZNK8FrameMap8argcountEv(ptr noundef nonnull align 8 dereferenceable(40) %8)
  %23 = sub nsw i32 %21, %22
  %24 = call noundef i32 @_ZNK8FrameMap19sp_offset_for_spillEi(ptr noundef nonnull align 8 dereferenceable(40) %8, i32 noundef %23)
  store i32 %24, ptr %7, align 4
  %25 = load i32, ptr %7, align 4
  store i32 %25, ptr %3, align 4
  br label %26

26:                                               ; preds = %20, %12
  %27 = load i32, ptr %3, align 4
  ret i32 %27
}

; Function Attrs: mustprogress nounwind uwtable
define hidden noundef zeroext i1 @_ZNK8FrameMap18locations_for_slotEiN8Location4TypeEPS0_S2_(ptr noundef nonnull align 8 dereferenceable(40) %0, i32 noundef %1, i32 noundef %2, ptr noundef %3, ptr noundef %4) #1 align 2 {
  %6 = alloca i1, align 1
  %7 = alloca ptr, align 8
  %8 = alloca i32, align 4
  %9 = alloca i32, align 4
  %10 = alloca ptr, align 8
  %11 = alloca ptr, align 8
  %12 = alloca i32, align 4
  store ptr %0, ptr %7, align 8
  store i32 %1, ptr %8, align 4
  store i32 %2, ptr %9, align 4
  store ptr %3, ptr %10, align 8
  store ptr %4, ptr %11, align 8
  %13 = load ptr, ptr %7, align 8
  %14 = load i32, ptr %8, align 4
  %15 = call noundef i32 @_ZNK8FrameMap18sp_offset_for_slotEi(ptr noundef nonnull align 8 dereferenceable(40) %13, i32 noundef %14)
  store i32 %15, ptr %12, align 4
  %16 = load i32, ptr %12, align 4
  %17 = load i32, ptr %9, align 4
  %18 = load ptr, ptr %10, align 8
  %19 = call noundef zeroext i1 @_ZNK8FrameMap22location_for_sp_offsetE8ByteSizeN8Location4TypeEPS1_(ptr noundef nonnull align 8 dereferenceable(40) %13, i32 noundef %16, i32 noundef %17, ptr noundef %18)
  br i1 %19, label %21, label %20

20:                                               ; preds = %5
  store i1 false, ptr %6, align 1
  br label %33

21:                                               ; preds = %5
  %22 = load ptr, ptr %11, align 8
  %23 = icmp ne ptr %22, null
  br i1 %23, label %24, label %32

24:                                               ; preds = %21
  %25 = load i32, ptr %12, align 4
  %26 = call noundef i32 @_Z11in_ByteSizei(i32 noundef 4)
  %27 = call noundef i32 @_Zpl8ByteSizeS_(i32 noundef %25, i32 noundef %26)
  store i32 %27, ptr %12, align 4
  %28 = load i32, ptr %12, align 4
  %29 = load i32, ptr %9, align 4
  %30 = load ptr, ptr %11, align 8
  %31 = call noundef zeroext i1 @_ZNK8FrameMap22location_for_sp_offsetE8ByteSizeN8Location4TypeEPS1_(ptr noundef nonnull align 8 dereferenceable(40) %13, i32 noundef %28, i32 noundef %29, ptr noundef %30)
  store i1 %31, ptr %6, align 1
  br label %33

32:                                               ; preds = %21
  store i1 true, ptr %6, align 1
  br label %33

33:                                               ; preds = %32, %24, %20
  %34 = load i1, ptr %6, align 1
  ret i1 %34
}