; Function Attrs: mustprogress nounwind uwtable
define hidden noundef zeroext i1 @_ZNK8FrameMap18locations_for_slotEiN8Location4TypeEPS0_S2_(ptr nocapture noundef nonnull readonly align 8 dereferenceable(40) %0, i32 noundef %1, i32 noundef %2, ptr nocapture noundef writeonly %3, ptr noundef writeonly %4) local_unnamed_addr #0 align 2 {
  %6 = getelementptr inbounds i8, ptr %0, i64 4
  %7 = load i32, ptr %6, align 4
  %8 = icmp sgt i32 %7, %1
  br i1 %8, label %9, label %17

9:                                                ; preds = %5
  %10 = getelementptr inbounds i8, ptr %0, i64 32
  %11 = load ptr, ptr %10, align 8
  %12 = getelementptr inbounds i8, ptr %11, i64 8
  %13 = load ptr, ptr %12, align 8
  %14 = sext i32 %1 to i64
  %15 = getelementptr inbounds i32, ptr %13, i64 %14
  %16 = load i32, ptr %15, align 4
  br label %_ZNK8FrameMap18sp_offset_for_slotEi.exit

17:                                               ; preds = %5
  %18 = sub nsw i32 %1, %7
  %19 = getelementptr inbounds i8, ptr %0, i64 16
  %20 = load i32, ptr %19, align 8
  %21 = add i32 %20, 7
  %22 = and i32 %21, -8
  %23 = shl nsw i32 %18, 2
  %24 = add nsw i32 %22, %23
  br label %_ZNK8FrameMap18sp_offset_for_slotEi.exit

_ZNK8FrameMap18sp_offset_for_slotEi.exit:         ; preds = %9, %17
  %.0.i = phi i32 [ %16, %9 ], [ %24, %17 ]
  %25 = tail call noundef zeroext i1 @_ZN8Location21legal_offset_in_bytesEi(i32 noundef %.0.i) #9
  br i1 %25, label %26, label %_ZNK8FrameMap22location_for_sp_offsetE8ByteSizeN8Location4TypeEPS1_.exit

26:                                               ; preds = %_ZNK8FrameMap18sp_offset_for_slotEi.exit
  %27 = shl i32 %.0.i, 3
  %28 = and i32 %27, -32
  %29 = or i32 %28, %2
  store i32 %29, ptr %3, align 4
  %.not = icmp eq ptr %4, null
  br i1 %.not, label %_ZNK8FrameMap22location_for_sp_offsetE8ByteSizeN8Location4TypeEPS1_.exit, label %30

30:                                               ; preds = %26
  %31 = add nsw i32 %.0.i, 4
  %32 = tail call noundef zeroext i1 @_ZN8Location21legal_offset_in_bytesEi(i32 noundef %31) #9
  br i1 %32, label %33, label %_ZNK8FrameMap22location_for_sp_offsetE8ByteSizeN8Location4TypeEPS1_.exit

33:                                               ; preds = %30
  %34 = shl i32 %31, 3
  %35 = and i32 %34, -32
  %36 = or i32 %35, %2
  store i32 %36, ptr %4, align 4
  br label %_ZNK8FrameMap22location_for_sp_offsetE8ByteSizeN8Location4TypeEPS1_.exit

_ZNK8FrameMap22location_for_sp_offsetE8ByteSizeN8Location4TypeEPS1_.exit: ; preds = %33, %30, %_ZNK8FrameMap18sp_offset_for_slotEi.exit, %26
  %.0 = phi i1 [ true, %26 ], [ false, %_ZNK8FrameMap18sp_offset_for_slotEi.exit ], [ false, %30 ], [ true, %33 ]
  ret i1 %.0
}